target datalayout = "e-m:e-p270:32:32-p271:32:32-p272:64:64-i64:64-i128:128-f80:128-n8:16:32:64-S128"
target triple = "x86_64-pc-linux-gnu"

%"class.rocksdb::Cleanable" = type { %"struct.rocksdb::Cleanable::Cleanup" }
%"struct.rocksdb::Cleanable::Cleanup" = type { ptr, ptr, ptr, ptr }

; Function Attrs: mustprogress nounwind uwtable
define void @_ZN7rocksdb9Cleanable15RegisterCleanupEPNS0_7CleanupE(ptr noundef nonnull align 8 dereferenceable(32) %0, ptr noundef %1) #0 align 2 {
  %3 = alloca ptr, align 8
  %4 = alloca ptr, align 8
  store ptr %0, ptr %3, align 8, !tbaa !4
  store ptr %1, ptr %4, align 8, !tbaa !16
  %5 = load ptr, ptr %3, align 8
  %6 = getelementptr inbounds nuw %"class.rocksdb::Cleanable", ptr %5, i32 0, i32 0
  %7 = getelementptr inbounds nuw %"struct.rocksdb::Cleanable::Cleanup", ptr %6, i32 0, i32 0
  %8 = load ptr, ptr %7, align 8, !tbaa !9
  %9 = icmp eq ptr %8, null
  br i1 %9, label %10, label %30

10:                                               ; preds = %2
  %11 = load ptr, ptr %4, align 8, !tbaa !16
  %12 = getelementptr inbounds nuw %"struct.rocksdb::Cleanable::Cleanup", ptr %11, i32 0, i32 0
  %13 = load ptr, ptr %12, align 8, !tbaa !17
  %14 = getelementptr inbounds nuw %"class.rocksdb::Cleanable", ptr %5, i32 0, i32 0
  %15 = getelementptr inbounds nuw %"struct.rocksdb::Cleanable::Cleanup", ptr %14, i32 0, i32 0
  store ptr %13, ptr %15, align 8, !tbaa !9
  %16 = load ptr, ptr %4, align 8, !tbaa !16
  %17 = getelementptr inbounds nuw %"struct.rocksdb::Cleanable::Cleanup", ptr %16, i32 0, i32 1
  %18 = load ptr, ptr %17, align 8, !tbaa !18
  %19 = getelementptr inbounds nuw %"class.rocksdb::Cleanable", ptr %5, i32 0, i32 0
  %20 = getelementptr inbounds nuw %"struct.rocksdb::Cleanable::Cleanup", ptr %19, i32 0, i32 1
  store ptr %18, ptr %20, align 8, !tbaa !14
  %21 = load ptr, ptr %4, align 8, !tbaa !16
  %22 = getelementptr inbounds nuw %"struct.rocksdb::Cleanable::Cleanup", ptr %21, i32 0, i32 2
  %23 = load ptr, ptr %22, align 8, !tbaa !19
  %24 = getelementptr inbounds nuw %"class.rocksdb::Cleanable", ptr %5, i32 0, i32 0
  %25 = getelementptr inbounds nuw %"struct.rocksdb::Cleanable::Cleanup", ptr %24, i32 0, i32 2
  store ptr %23, ptr %25, align 8, !tbaa !15
  %26 = load ptr, ptr %4, align 8, !tbaa !16
  %27 = icmp eq ptr %26, null
  br i1 %27, label %29, label %28

28:                                               ; preds = %10
  call void @_ZdlPvm(ptr noundef %26, i64 noundef 32) #12
  br label %29

29:                                               ; preds = %28, %10
  br label %39

30:                                               ; preds = %2
  %31 = getelementptr inbounds nuw %"class.rocksdb::Cleanable", ptr %5, i32 0, i32 0
  %32 = getelementptr inbounds nuw %"struct.rocksdb::Cleanable::Cleanup", ptr %31, i32 0, i32 3
  %33 = load ptr, ptr %32, align 8, !tbaa !13
  %34 = load ptr, ptr %4, align 8, !tbaa !16
  %35 = getelementptr inbounds nuw %"struct.rocksdb::Cleanable::Cleanup", ptr %34, i32 0, i32 3
  store ptr %33, ptr %35, align 8, !tbaa !20
  %36 = load ptr, ptr %4, align 8, !tbaa !16
  %37 = getelementptr inbounds nuw %"class.rocksdb::Cleanable", ptr %5, i32 0, i32 0
  %38 = getelementptr inbounds nuw %"struct.rocksdb::Cleanable::Cleanup", ptr %37, i32 0, i32 3
  store ptr %36, ptr %38, align 8, !tbaa !13
  br label %39

39:                                               ; preds = %30, %29
  ret void
}

; Function Attrs: mustprogress uwtable
define void @_ZN7rocksdb9Cleanable15RegisterCleanupEPFvPvS1_ES1_S1_(ptr noundef nonnull align 8 dereferenceable(32) %0, ptr noundef %1, ptr noundef %2, ptr noundef %3) #4 align 2 {
  %5 = alloca ptr, align 8
  %6 = alloca ptr, align 8
  %7 = alloca ptr, align 8
  %8 = alloca ptr, align 8
  %9 = alloca ptr, align 8
  store ptr %0, ptr %5, align 8, !tbaa !4
  store ptr %1, ptr %6, align 8, !tbaa !24
  store ptr %2, ptr %7, align 8, !tbaa !24
  store ptr %3, ptr %8, align 8, !tbaa !24
  %10 = load ptr, ptr %5, align 8
  call void @llvm.lifetime.start.p0(i64 8, ptr %9) #11
  %11 = getelementptr inbounds nuw %"class.rocksdb::Cleanable", ptr %10, i32 0, i32 0
  %12 = getelementptr inbounds nuw %"struct.rocksdb::Cleanable::Cleanup", ptr %11, i32 0, i32 0
  %13 = load ptr, ptr %12, align 8, !tbaa !9
  %14 = icmp eq ptr %13, null
  br i1 %14, label %15, label %17

15:                                               ; preds = %4
  %16 = getelementptr inbounds nuw %"class.rocksdb::Cleanable", ptr %10, i32 0, i32 0
  store ptr %16, ptr %9, align 8, !tbaa !16
  br label %27

17:                                               ; preds = %4
  %18 = call noalias noundef nonnull ptr @_Znwm(i64 noundef 32) #14
  store ptr %18, ptr %9, align 8, !tbaa !16
  %19 = getelementptr inbounds nuw %"class.rocksdb::Cleanable", ptr %10, i32 0, i32 0
  %20 = getelementptr inbounds nuw %"struct.rocksdb::Cleanable::Cleanup", ptr %19, i32 0, i32 3
  %21 = load ptr, ptr %20, align 8, !tbaa !13
  %22 = load ptr, ptr %9, align 8, !tbaa !16
  %23 = getelementptr inbounds nuw %"struct.rocksdb::Cleanable::Cleanup", ptr %22, i32 0, i32 3
  store ptr %21, ptr %23, align 8, !tbaa !20
  %24 = load ptr, ptr %9, align 8, !tbaa !16
  %25 = getelementptr inbounds nuw %"class.rocksdb::Cleanable", ptr %10, i32 0, i32 0
  %26 = getelementptr inbounds nuw %"struct.rocksdb::Cleanable::Cleanup", ptr %25, i32 0, i32 3
  store ptr %24, ptr %26, align 8, !tbaa !13
  br label %27

27:                                               ; preds = %17, %15
  %28 = load ptr, ptr %6, align 8, !tbaa !24
  %29 = load ptr, ptr %9, align 8, !tbaa !16
  %30 = getelementptr inbounds nuw %"struct.rocksdb::Cleanable::Cleanup", ptr %29, i32 0, i32 0
  store ptr %28, ptr %30, align 8, !tbaa !17
  %31 = load ptr, ptr %7, align 8, !tbaa !24
  %32 = load ptr, ptr %9, align 8, !tbaa !16
  %33 = getelementptr inbounds nuw %"struct.rocksdb::Cleanable::Cleanup", ptr %32, i32 0, i32 1
  store ptr %31, ptr %33, align 8, !tbaa !18
  %34 = load ptr, ptr %8, align 8, !tbaa !24
  %35 = load ptr, ptr %9, align 8, !tbaa !16
  %36 = getelementptr inbounds nuw %"struct.rocksdb::Cleanable::Cleanup", ptr %35, i32 0, i32 2
  store ptr %34, ptr %36, align 8, !tbaa !19
  call void @llvm.lifetime.end.p0(i64 8, ptr %9) #11
  ret void
}

; Function Attrs: mustprogress uwtable
define void @_ZN7rocksdb9Cleanable18DelegateCleanupsToEPS0_(ptr noundef nonnull align 8 dereferenceable(32) %0, ptr noundef %1) #4 align 2 {
  %3 = alloca ptr, align 8
  %4 = alloca ptr, align 8
  %5 = alloca ptr, align 8
  %6 = alloca ptr, align 8
  store ptr %0, ptr %3, align 8, !tbaa !4
  store ptr %1, ptr %4, align 8, !tbaa !4
  %7 = load ptr, ptr %3, align 8
  %8 = getelementptr inbounds nuw %"class.rocksdb::Cleanable", ptr %7, i32 0, i32 0
  %9 = getelementptr inbounds nuw %"struct.rocksdb::Cleanable::Cleanup", ptr %8, i32 0, i32 0
  %10 = load ptr, ptr %9, align 8, !tbaa !9
  %11 = icmp eq ptr %10, null
  br i1 %11, label %12, label %13

12:                                               ; preds = %2
  br label %43

13:                                               ; preds = %2
  call void @llvm.lifetime.start.p0(i64 8, ptr %5) #11
  %14 = getelementptr inbounds nuw %"class.rocksdb::Cleanable", ptr %7, i32 0, i32 0
  store ptr %14, ptr %5, align 8, !tbaa !16
  %15 = load ptr, ptr %4, align 8, !tbaa !4
  %16 = load ptr, ptr %5, align 8, !tbaa !16
  %17 = getelementptr inbounds nuw %"struct.rocksdb::Cleanable::Cleanup", ptr %16, i32 0, i32 0
  %18 = load ptr, ptr %17, align 8, !tbaa !17
  %19 = load ptr, ptr %5, align 8, !tbaa !16
  %20 = getelementptr inbounds nuw %"struct.rocksdb::Cleanable::Cleanup", ptr %19, i32 0, i32 1
  %21 = load ptr, ptr %20, align 8, !tbaa !18
  %22 = load ptr, ptr %5, align 8, !tbaa !16
  %23 = getelementptr inbounds nuw %"struct.rocksdb::Cleanable::Cleanup", ptr %22, i32 0, i32 2
  %24 = load ptr, ptr %23, align 8, !tbaa !19
  call void @_ZN7rocksdb9Cleanable15RegisterCleanupEPFvPvS1_ES1_S1_(ptr noundef nonnull align 8 dereferenceable(32) %15, ptr noundef %18, ptr noundef %21, ptr noundef %24)
  %25 = load ptr, ptr %5, align 8, !tbaa !16
  %26 = getelementptr inbounds nuw %"struct.rocksdb::Cleanable::Cleanup", ptr %25, i32 0, i32 3
  %27 = load ptr, ptr %26, align 8, !tbaa !20
  store ptr %27, ptr %5, align 8, !tbaa !16
  br label %28

28:                                               ; preds = %31, %13
  %29 = load ptr, ptr %5, align 8, !tbaa !16
  %30 = icmp ne ptr %29, null
  br i1 %30, label %31, label %38

31:                                               ; preds = %28
  call void @llvm.lifetime.start.p0(i64 8, ptr %6) #11
  %32 = load ptr, ptr %5, align 8, !tbaa !16
  %33 = getelementptr inbounds nuw %"struct.rocksdb::Cleanable::Cleanup", ptr %32, i32 0, i32 3
  %34 = load ptr, ptr %33, align 8, !tbaa !20
  store ptr %34, ptr %6, align 8, !tbaa !16
  %35 = load ptr, ptr %4, align 8, !tbaa !4
  %36 = load ptr, ptr %5, align 8, !tbaa !16
  call void @_ZN7rocksdb9Cleanable15RegisterCleanupEPNS0_7CleanupE(ptr noundef nonnull align 8 dereferenceable(32) %35, ptr noundef %36)
  %37 = load ptr, ptr %6, align 8, !tbaa !16
  store ptr %37, ptr %5, align 8, !tbaa !16
  call void @llvm.lifetime.end.p0(i64 8, ptr %6) #11
  br label %28, !llvm.loop !25

38:                                               ; preds = %28
  %39 = getelementptr inbounds nuw %"class.rocksdb::Cleanable", ptr %7, i32 0, i32 0
  %40 = getelementptr inbounds nuw %"struct.rocksdb::Cleanable::Cleanup", ptr %39, i32 0, i32 0
  store ptr null, ptr %40, align 8, !tbaa !9
  %41 = getelementptr inbounds nuw %"class.rocksdb::Cleanable", ptr %7, i32 0, i32 0
  %42 = getelementptr inbounds nuw %"struct.rocksdb::Cleanable::Cleanup", ptr %41, i32 0, i32 3
  store ptr null, ptr %42, align 8, !tbaa !13
  call void @llvm.lifetime.end.p0(i64 8, ptr %5) #11
  br label %43

43:                                               ; preds = %38, %12
  ret void
}