; Function Attrs: mustprogress uwtable
define void @_ZN7rocksdb9Cleanable18DelegateCleanupsToEPS0_(ptr noundef nonnull align 8 captures(none) dereferenceable(32) %0, ptr noundef captures(none) %1) local_unnamed_addr #5 align 2 {
  %3 = load ptr, ptr %0, align 8, !tbaa !4
  %4 = icmp eq ptr %3, null
  br i1 %4, label %41, label %5

5:                                                ; preds = %2
  %6 = getelementptr inbounds nuw i8, ptr %0, i64 8
  %7 = load ptr, ptr %6, align 8, !tbaa !15
  %8 = getelementptr inbounds nuw i8, ptr %0, i64 16
  %9 = load ptr, ptr %8, align 8, !tbaa !16
  %10 = load ptr, ptr %1, align 8, !tbaa !4
  %11 = icmp eq ptr %10, null
  br i1 %11, label %_ZN7rocksdb9Cleanable15RegisterCleanupEPFvPvS1_ES1_S1_.exit, label %12

12:                                               ; preds = %5
  %13 = tail call noalias noundef nonnull dereferenceable(32) ptr @_Znwm(i64 noundef 32) #13
  %14 = getelementptr inbounds nuw i8, ptr %1, i64 24
  %15 = load ptr, ptr %14, align 8, !tbaa !11
  %16 = getelementptr inbounds nuw i8, ptr %13, i64 24
  store ptr %15, ptr %16, align 8, !tbaa !17
  store ptr %13, ptr %14, align 8, !tbaa !11
  br label %_ZN7rocksdb9Cleanable15RegisterCleanupEPFvPvS1_ES1_S1_.exit

_ZN7rocksdb9Cleanable15RegisterCleanupEPFvPvS1_ES1_S1_.exit: ; preds = %5, %12
  %.0.i = phi ptr [ %13, %12 ], [ %1, %5 ]
  store ptr %3, ptr %.0.i, align 8, !tbaa !18
  %17 = getelementptr inbounds nuw i8, ptr %.0.i, i64 8
  store ptr %7, ptr %17, align 8, !tbaa !15
  %18 = getelementptr inbounds nuw i8, ptr %.0.i, i64 16
  store ptr %9, ptr %18, align 8, !tbaa !16
  %19 = getelementptr inbounds nuw i8, ptr %0, i64 24
  %20 = load ptr, ptr %19, align 8, !tbaa !17
  %.not12 = icmp eq ptr %20, null
  br i1 %.not12, label %._crit_edge, label %.lr.ph

.lr.ph:                                           ; preds = %_ZN7rocksdb9Cleanable15RegisterCleanupEPFvPvS1_ES1_S1_.exit
  %21 = getelementptr inbounds nuw i8, ptr %1, i64 24
  %22 = getelementptr inbounds nuw i8, ptr %1, i64 8
  %23 = getelementptr inbounds nuw i8, ptr %1, i64 16
  %24 = load ptr, ptr %1, align 8, !tbaa !4
  %25 = icmp eq ptr %24, null
  br i1 %25, label %.lr.ph.split, label %_ZN7rocksdb9Cleanable15RegisterCleanupEPNS0_7CleanupE.exit.us.preheader

_ZN7rocksdb9Cleanable15RegisterCleanupEPNS0_7CleanupE.exit.us.preheader: ; preds = %.lr.ph
  %.pre = load ptr, ptr %21, align 8, !tbaa !11
  br label %_ZN7rocksdb9Cleanable15RegisterCleanupEPNS0_7CleanupE.exit.us

_ZN7rocksdb9Cleanable15RegisterCleanupEPNS0_7CleanupE.exit.us: ; preds = %_ZN7rocksdb9Cleanable15RegisterCleanupEPNS0_7CleanupE.exit.us.preheader, %_ZN7rocksdb9Cleanable15RegisterCleanupEPNS0_7CleanupE.exit.us
  %26 = phi ptr [ %.013.us, %_ZN7rocksdb9Cleanable15RegisterCleanupEPNS0_7CleanupE.exit.us ], [ %.pre, %_ZN7rocksdb9Cleanable15RegisterCleanupEPNS0_7CleanupE.exit.us.preheader ]
  %.013.us = phi ptr [ %28, %_ZN7rocksdb9Cleanable15RegisterCleanupEPNS0_7CleanupE.exit.us ], [ %20, %_ZN7rocksdb9Cleanable15RegisterCleanupEPNS0_7CleanupE.exit.us.preheader ]
  %27 = getelementptr inbounds nuw i8, ptr %.013.us, i64 24
  %28 = load ptr, ptr %27, align 8, !tbaa !17
  store ptr %26, ptr %27, align 8, !tbaa !17
  store ptr %.013.us, ptr %21, align 8, !tbaa !11
  %.not.us = icmp eq ptr %28, null
  br i1 %.not.us, label %._crit_edge, label %_ZN7rocksdb9Cleanable15RegisterCleanupEPNS0_7CleanupE.exit.us, !llvm.loop !19

.lr.ph.splitthread-pre-split:                     ; preds = %_ZN7rocksdb9Cleanable15RegisterCleanupEPNS0_7CleanupE.exit
  %.pr = load ptr, ptr %1, align 8, !tbaa !4
  br label %.lr.ph.split

.lr.ph.split:                                     ; preds = %.lr.ph, %.lr.ph.splitthread-pre-split
  %29 = phi ptr [ %.pr, %.lr.ph.splitthread-pre-split ], [ null, %.lr.ph ]
  %.013 = phi ptr [ %31, %.lr.ph.splitthread-pre-split ], [ %20, %.lr.ph ]
  %30 = getelementptr inbounds nuw i8, ptr %.013, i64 24
  %31 = load ptr, ptr %30, align 8, !tbaa !17
  %32 = icmp eq ptr %29, null
  br i1 %32, label %33, label %39

33:                                               ; preds = %.lr.ph.split
  %34 = load ptr, ptr %.013, align 8, !tbaa !18
  store ptr %34, ptr %1, align 8, !tbaa !4
  %35 = getelementptr inbounds nuw i8, ptr %.013, i64 8
  %36 = load ptr, ptr %35, align 8, !tbaa !15
  store ptr %36, ptr %22, align 8, !tbaa !21
  %37 = getelementptr inbounds nuw i8, ptr %.013, i64 16
  %38 = load ptr, ptr %37, align 8, !tbaa !16
  store ptr %38, ptr %23, align 8, !tbaa !22
  tail call void @_ZdlPvm(ptr noundef nonnull %.013, i64 noundef 32) #14
  br label %_ZN7rocksdb9Cleanable15RegisterCleanupEPNS0_7CleanupE.exit

39:                                               ; preds = %.lr.ph.split
  %40 = load ptr, ptr %21, align 8, !tbaa !11
  store ptr %40, ptr %30, align 8, !tbaa !17
  store ptr %.013, ptr %21, align 8, !tbaa !11
  br label %_ZN7rocksdb9Cleanable15RegisterCleanupEPNS0_7CleanupE.exit

_ZN7rocksdb9Cleanable15RegisterCleanupEPNS0_7CleanupE.exit: ; preds = %33, %39
  %.not = icmp eq ptr %31, null
  br i1 %.not, label %._crit_edge, label %.lr.ph.splitthread-pre-split, !llvm.loop !23

._crit_edge:                                      ; preds = %_ZN7rocksdb9Cleanable15RegisterCleanupEPNS0_7CleanupE.exit.us, %_ZN7rocksdb9Cleanable15RegisterCleanupEPNS0_7CleanupE.exit, %_ZN7rocksdb9Cleanable15RegisterCleanupEPFvPvS1_ES1_S1_.exit
  store ptr null, ptr %0, align 8, !tbaa !4
  store ptr null, ptr %19, align 8, !tbaa !11
  br label %41

41:                                               ; preds = %2, %._crit_edge
  ret void
}